target datalayout = "e-m:e-p270:32:32-p271:32:32-p272:64:64-i64:64-i128:128-f80:128-n8:16:32:64-S128"
target triple = "x86_64-pc-linux-gnu"

@hf_cqich_control_ie_indicator = internal global i32 0, align 4
@hf_cqich_control_ie_alloc_id = internal global i32 0, align 4
@hf_cqich_control_ie_period = internal global i32 0, align 4
@hf_cqich_control_ie_frame_offset = internal global i32 0, align 4
@hf_cqich_control_ie_duration = internal global i32 0, align 4
@hf_cqich_control_ie_cqi_rep_threshold = internal global i32 0, align 4
@hf_cqich_control_ie_indicator_1 = internal global i32 0, align 4
@hf_cqich_control_ie_alloc_id_1 = internal global i32 0, align 4
@hf_cqich_control_ie_period_1 = internal global i32 0, align 4
@hf_cqich_control_ie_frame_offset_1 = internal global i32 0, align 4
@hf_cqich_control_ie_duration_1 = internal global i32 0, align 4
@hf_cqich_control_ie_cqi_rep_threshold_1 = internal global i32 0, align 4

; Function Attrs: null_pointer_is_valid sspstrong uwtable
define internal i32 @wimax_compact_dlmap_cqich_control_ie_decoder(ptr noundef %0, ptr noundef %1, ptr noundef %2, i32 noundef %3, i32 noundef %4) #0 {
  %6 = alloca ptr, align 8
  %7 = alloca ptr, align 8
  %8 = alloca ptr, align 8
  %9 = alloca i32, align 4
  %10 = alloca i32, align 4
  %11 = alloca i32, align 4
  %12 = alloca i32, align 4
  %13 = alloca i32, align 4
  store ptr %0, ptr %6, align 8
  store ptr %1, ptr %7, align 8
  store ptr %2, ptr %8, align 8
  store i32 %3, ptr %9, align 4
  store i32 %4, ptr %10, align 4
  call void @llvm.lifetime.start.p0(i64 4, ptr %11) #3
  call void @llvm.lifetime.start.p0(i64 4, ptr %12) #3
  call void @llvm.lifetime.start.p0(i64 4, ptr %13) #3
  store i32 0, ptr %13, align 4
  %14 = load ptr, ptr %8, align 8
  %15 = load i32, ptr %9, align 4
  %16 = call zeroext i8 @tvb_get_uint8(ptr noundef %14, i32 noundef %15)
  %17 = zext i8 %16 to i32
  store i32 %17, ptr %11, align 4
  %18 = load i32, ptr %10, align 4
  %19 = and i32 %18, 1
  %20 = icmp ne i32 %19, 0
  br i1 %20, label %21, label %64

21:                                               ; preds = %5
  %22 = load i32, ptr %11, align 4
  %23 = and i32 %22, 8
  store i32 %23, ptr %12, align 4
  %24 = load i32, ptr %12, align 4
  %25 = icmp ne i32 %24, 0
  br i1 %25, label %26, label %52

26:                                               ; preds = %21
  %27 = load ptr, ptr %6, align 8
  %28 = load i32, ptr @hf_cqich_control_ie_indicator_1, align 4
  %29 = load ptr, ptr %8, align 8
  %30 = load i32, ptr %9, align 4
  %31 = call ptr @proto_tree_add_item(ptr noundef %27, i32 noundef %28, ptr noundef %29, i32 noundef %30, i32 noundef 3, i32 noundef 0)
  %32 = load ptr, ptr %6, align 8
  %33 = load i32, ptr @hf_cqich_control_ie_alloc_id_1, align 4
  %34 = load ptr, ptr %8, align 8
  %35 = load i32, ptr %9, align 4
  %36 = call ptr @proto_tree_add_item(ptr noundef %32, i32 noundef %33, ptr noundef %34, i32 noundef %35, i32 noundef 3, i32 noundef 0)
  %37 = load ptr, ptr %6, align 8
  %38 = load i32, ptr @hf_cqich_control_ie_period_1, align 4
  %39 = load ptr, ptr %8, align 8
  %40 = load i32, ptr %9, align 4
  %41 = call ptr @proto_tree_add_item(ptr noundef %37, i32 noundef %38, ptr noundef %39, i32 noundef %40, i32 noundef 3, i32 noundef 0)
  %42 = load ptr, ptr %6, align 8
  %43 = load i32, ptr @hf_cqich_control_ie_frame_offset_1, align 4
  %44 = load ptr, ptr %8, align 8
  %45 = load i32, ptr %9, align 4
  %46 = call ptr @proto_tree_add_item(ptr noundef %42, i32 noundef %43, ptr noundef %44, i32 noundef %45, i32 noundef 3, i32 noundef 0)
  %47 = load ptr, ptr %6, align 8
  %48 = load i32, ptr @hf_cqich_control_ie_duration_1, align 4
  %49 = load ptr, ptr %8, align 8
  %50 = load i32, ptr %9, align 4
  %51 = call ptr @proto_tree_add_item(ptr noundef %47, i32 noundef %48, ptr noundef %49, i32 noundef %50, i32 noundef 3, i32 noundef 0)
  store i32 4, ptr %13, align 4
  br label %63

52:                                               ; preds = %21
  %53 = load ptr, ptr %6, align 8
  %54 = load i32, ptr @hf_cqich_control_ie_indicator_1, align 4
  %55 = load ptr, ptr %8, align 8
  %56 = load i32, ptr %9, align 4
  %57 = call ptr @proto_tree_add_item(ptr noundef %53, i32 noundef %54, ptr noundef %55, i32 noundef %56, i32 noundef 1, i32 noundef 0)
  %58 = load ptr, ptr %6, align 8
  %59 = load i32, ptr @hf_cqich_control_ie_cqi_rep_threshold_1, align 4
  %60 = load ptr, ptr %8, align 8
  %61 = load i32, ptr %9, align 4
  %62 = call ptr @proto_tree_add_item(ptr noundef %58, i32 noundef %59, ptr noundef %60, i32 noundef %61, i32 noundef 1, i32 noundef 0)
  store i32 1, ptr %13, align 4
  br label %63

63:                                               ; preds = %52, %26
  br label %107

64:                                               ; preds = %5
  %65 = load i32, ptr %11, align 4
  %66 = and i32 %65, 128
  store i32 %66, ptr %12, align 4
  %67 = load i32, ptr %12, align 4
  %68 = icmp ne i32 %67, 0
  br i1 %68, label %69, label %95

69:                                               ; preds = %64
  %70 = load ptr, ptr %6, align 8
  %71 = load i32, ptr @hf_cqich_control_ie_indicator, align 4
  %72 = load ptr, ptr %8, align 8
  %73 = load i32, ptr %9, align 4
  %74 = call ptr @proto_tree_add_item(ptr noundef %70, i32 noundef %71, ptr noundef %72, i32 noundef %73, i32 noundef 2, i32 noundef 0)
  %75 = load ptr, ptr %6, align 8
  %76 = load i32, ptr @hf_cqich_control_ie_alloc_id, align 4
  %77 = load ptr, ptr %8, align 8
  %78 = load i32, ptr %9, align 4
  %79 = call ptr @proto_tree_add_item(ptr noundef %75, i32 noundef %76, ptr noundef %77, i32 noundef %78, i32 noundef 2, i32 noundef 0)
  %80 = load ptr, ptr %6, align 8
  %81 = load i32, ptr @hf_cqich_control_ie_period, align 4
  %82 = load ptr, ptr %8, align 8
  %83 = load i32, ptr %9, align 4
  %84 = call ptr @proto_tree_add_item(ptr noundef %80, i32 noundef %81, ptr noundef %82, i32 noundef %83, i32 noundef 2, i32 noundef 0)
  %85 = load ptr, ptr %6, align 8
  %86 = load i32, ptr @hf_cqich_control_ie_frame_offset, align 4
  %87 = load ptr, ptr %8, align 8
  %88 = load i32, ptr %9, align 4
  %89 = call ptr @proto_tree_add_item(ptr noundef %85, i32 noundef %86, ptr noundef %87, i32 noundef %88, i32 noundef 2, i32 noundef 0)
  %90 = load ptr, ptr %6, align 8
  %91 = load i32, ptr @hf_cqich_control_ie_duration, align 4
  %92 = load ptr, ptr %8, align 8
  %93 = load i32, ptr %9, align 4
  %94 = call ptr @proto_tree_add_item(ptr noundef %90, i32 noundef %91, ptr noundef %92, i32 noundef %93, i32 noundef 2, i32 noundef 0)
  store i32 4, ptr %13, align 4
  br label %106

95:                                               ; preds = %64
  %96 = load ptr, ptr %6, align 8
  %97 = load i32, ptr @hf_cqich_control_ie_indicator, align 4
  %98 = load ptr, ptr %8, align 8
  %99 = load i32, ptr %9, align 4
  %100 = call ptr @proto_tree_add_item(ptr noundef %96, i32 noundef %97, ptr noundef %98, i32 noundef %99, i32 noundef 1, i32 noundef 0)
  %101 = load ptr, ptr %6, align 8
  %102 = load i32, ptr @hf_cqich_control_ie_cqi_rep_threshold, align 4
  %103 = load ptr, ptr %8, align 8
  %104 = load i32, ptr %9, align 4
  %105 = call ptr @proto_tree_add_item(ptr noundef %101, i32 noundef %102, ptr noundef %103, i32 noundef %104, i32 noundef 1, i32 noundef 0)
  store i32 1, ptr %13, align 4
  br label %106

106:                                              ; preds = %95, %69
  br label %107

107:                                              ; preds = %106, %63
  %108 = load i32, ptr %13, align 4
  call void @llvm.lifetime.end.p0(i64 4, ptr %13) #3
  call void @llvm.lifetime.end.p0(i64 4, ptr %12) #3
  call void @llvm.lifetime.end.p0(i64 4, ptr %11) #3
  ret i32 %108
}